; Function Attrs: nounwind uwtable
define void @dt_control_queue_redraw_widget(ptr noundef %0) local_unnamed_addr #0 {
  %2 = load ptr, ptr getelementptr inbounds nuw (i8, ptr @darktable, i64 88), align 8, !tbaa !107
  %.not.i = icmp eq ptr %2, null
  br i1 %.not.i, label %dt_control_running.exit.thread, label %dt_control_running.exit

dt_control_running.exit:                          ; preds = %1
  %3 = getelementptr inbounds nuw i8, ptr %2, i64 9744
  %4 = load atomic i32, ptr %3 seq_cst, align 4
  %.not = icmp eq i32 %4, 1
  br i1 %.not, label %5, label %dt_control_running.exit.thread

5:                                                ; preds = %dt_control_running.exit
  %6 = tail call ptr @g_object_ref(ptr noundef %0) #13
  %7 = tail call i32 @g_idle_add(ptr noundef nonnull @_widget_queue_draw, ptr noundef %0) #13
  br label %dt_control_running.exit.thread

dt_control_running.exit.thread:                   ; preds = %1, %5, %dt_control_running.exit
  ret void
}